; Function Attrs: nounwind uwtable
define internal ptr @_lzma_is_check_supported(ptr readnone captures(none) %0, ptr noundef %1) #0 {
  %3 = tail call i32 @PyLong_AsInt(ptr noundef %1) #10
  %4 = icmp eq i32 %3, -1
  br i1 %4, label %5, label %.sink.split

5:                                                ; preds = %2
  %6 = tail call ptr @PyErr_Occurred() #10
  %.not = icmp eq ptr %6, null
  br i1 %.not, label %.sink.split, label %10

.sink.split:                                      ; preds = %5, %2
  %.sink = phi i32 [ %3, %2 ], [ -1, %5 ]
  %7 = tail call zeroext i8 @lzma_check_is_supported(i32 noundef %.sink) #11
  %8 = zext i8 %7 to i64
  %9 = tail call ptr @PyBool_FromLong(i64 noundef %8) #10
  br label %10

10:                                               ; preds = %.sink.split, %5
  %.0 = phi ptr [ null, %5 ], [ %9, %.sink.split ]
  ret ptr %.0
}